target datalayout = "e-m:e-p270:32:32-p271:32:32-p272:64:64-i64:64-i128:128-f80:128-n8:16:32:64-S128"
target triple = "x86_64-pc-linux-gnu"

%struct.JNINativeInterface_ = type { ptr, ptr, ptr, ptr, ptr, ptr, ptr, ptr, ptr, ptr, ptr, ptr, ptr, ptr, ptr, ptr, ptr, ptr, ptr, ptr, ptr, ptr, ptr, ptr, ptr, ptr, ptr, ptr, ptr, ptr, ptr, ptr, ptr, ptr, ptr, ptr, ptr, ptr, ptr, ptr, ptr, ptr, ptr, ptr, ptr, ptr, ptr, ptr, ptr, ptr, ptr, ptr, ptr, ptr, ptr, ptr, ptr, ptr, ptr, ptr, ptr, ptr, ptr, ptr, ptr, ptr, ptr, ptr, ptr, ptr, ptr, ptr, ptr, ptr, ptr, ptr, ptr, ptr, ptr, ptr, ptr, ptr, ptr, ptr, ptr, ptr, ptr, ptr, ptr, ptr, ptr, ptr, ptr, ptr, ptr, ptr, ptr, ptr, ptr, ptr, ptr, ptr, ptr, ptr, ptr, ptr, ptr, ptr, ptr, ptr, ptr, ptr, ptr, ptr, ptr, ptr, ptr, ptr, ptr, ptr, ptr, ptr, ptr, ptr, ptr, ptr, ptr, ptr, ptr, ptr, ptr, ptr, ptr, ptr, ptr, ptr, ptr, ptr, ptr, ptr, ptr, ptr, ptr, ptr, ptr, ptr, ptr, ptr, ptr, ptr, ptr, ptr, ptr, ptr, ptr, ptr, ptr, ptr, ptr, ptr, ptr, ptr, ptr, ptr, ptr, ptr, ptr, ptr, ptr, ptr, ptr, ptr, ptr, ptr, ptr, ptr, ptr, ptr, ptr, ptr, ptr, ptr, ptr, ptr, ptr, ptr, ptr, ptr, ptr, ptr, ptr, ptr, ptr, ptr, ptr, ptr, ptr, ptr, ptr, ptr, ptr, ptr, ptr, ptr, ptr, ptr, ptr, ptr, ptr, ptr, ptr, ptr, ptr, ptr, ptr, ptr, ptr, ptr, ptr, ptr, ptr, ptr, ptr, ptr, ptr, ptr, ptr, ptr, ptr, ptr, ptr, ptr, ptr, ptr, ptr }
%struct.GSS_FUNCTION_TABLE = type { ptr, ptr, ptr, ptr, ptr, ptr, ptr, ptr, ptr, ptr, ptr, ptr, ptr, ptr, ptr, ptr, ptr, ptr, ptr, ptr, ptr, ptr, ptr, ptr, ptr, ptr, ptr, ptr, ptr }

@JGSS_DEBUG = external global i32, align 4
@stderr = external global ptr, align 8
@.str = private unnamed_addr constant [20 x i8] c"[GSSLibStub:%d] %s\0A\00", align 1
@ftab = external global ptr, align 8
@FID_GSSLibStub_pMech = external global ptr, align 8
@.str.20 = private unnamed_addr constant [25 x i8] c"[GSSLibStub_acquireCred]\00", align 1
@.str.21 = private unnamed_addr constant [62 x i8] c"[GSSLibStub:%d] [GSSLibStub_acquireCred] pName=%ld, usage=%d\0A\00", align 1
@.str.22 = private unnamed_addr constant [52 x i8] c"[GSSLibStub:%d] [GSSLibStub_acquireCred] pCred=%lu\0A\00", align 1

; Function Attrs: nounwind uwtable
define i64 @Java_sun_security_jgss_wrapper_GSSLibStub_acquireCred(ptr noundef %0, ptr noundef %1, i64 noundef %2, i32 noundef %3, i32 noundef %4) #0 {
  %6 = alloca i64, align 8
  %7 = alloca ptr, align 8
  %8 = alloca ptr, align 8
  %9 = alloca i64, align 8
  %10 = alloca i32, align 4
  %11 = alloca i32, align 4
  %12 = alloca i32, align 4
  %13 = alloca i32, align 4
  %14 = alloca ptr, align 8
  %15 = alloca ptr, align 8
  %16 = alloca i32, align 4
  %17 = alloca ptr, align 8
  %18 = alloca ptr, align 8
  store ptr %0, ptr %7, align 8
  store ptr %1, ptr %8, align 8
  store i64 %2, ptr %9, align 8
  store i32 %3, ptr %10, align 4
  store i32 %4, ptr %11, align 4
  store ptr null, ptr %18, align 8
  %19 = load i32, ptr @JGSS_DEBUG, align 4
  %20 = icmp ne i32 %19, 0
  br i1 %20, label %21, label %26

21:                                               ; preds = %5
  %22 = load ptr, ptr @stderr, align 8
  %23 = call i32 (ptr, ptr, ...) @fprintf(ptr noundef %22, ptr noundef @.str, i32 noundef 632, ptr noundef @.str.20) #5
  %24 = load ptr, ptr @stderr, align 8
  %25 = call i32 @fflush(ptr noundef %24)
  br label %26

26:                                               ; preds = %21, %5
  %27 = load ptr, ptr %7, align 8
  %28 = load ptr, ptr %27, align 8
  %29 = getelementptr inbounds %struct.JNINativeInterface_, ptr %28, i32 0, i32 101
  %30 = load ptr, ptr %29, align 8
  %31 = load ptr, ptr %7, align 8
  %32 = load ptr, ptr %8, align 8
  %33 = load ptr, ptr @FID_GSSLibStub_pMech, align 8
  %34 = call i64 %30(ptr noundef %31, ptr noundef %32, ptr noundef %33)
  %35 = inttoptr i64 %34 to ptr
  store ptr %35, ptr %14, align 8
  %36 = load ptr, ptr %14, align 8
  %37 = call ptr @newGSSOIDSet(ptr noundef %36)
  store ptr %37, ptr %15, align 8
  %38 = load i32, ptr %11, align 4
  store i32 %38, ptr %16, align 4
  %39 = load i64, ptr %9, align 8
  %40 = inttoptr i64 %39 to ptr
  store ptr %40, ptr %17, align 8
  %41 = load i32, ptr @JGSS_DEBUG, align 4
  %42 = icmp ne i32 %41, 0
  br i1 %42, label %43, label %50

43:                                               ; preds = %26
  %44 = load ptr, ptr @stderr, align 8
  %45 = load i64, ptr %9, align 8
  %46 = load i32, ptr %11, align 4
  %47 = call i32 (ptr, ptr, ...) @fprintf(ptr noundef %44, ptr noundef @.str.21, i32 noundef 639, i64 noundef %45, i32 noundef %46) #5
  %48 = load ptr, ptr @stderr, align 8
  %49 = call i32 @fflush(ptr noundef %48)
  br label %50

50:                                               ; preds = %43, %26
  %51 = load ptr, ptr @ftab, align 8
  %52 = getelementptr inbounds %struct.GSS_FUNCTION_TABLE, ptr %51, i32 0, i32 7
  %53 = load ptr, ptr %52, align 8
  %54 = load ptr, ptr %17, align 8
  %55 = load i32, ptr %10, align 4
  %56 = load ptr, ptr %15, align 8
  %57 = load i32, ptr %16, align 4
  %58 = call i32 %53(ptr noundef %12, ptr noundef %54, i32 noundef %55, ptr noundef %56, i32 noundef %57, ptr noundef %18, ptr noundef null, ptr noundef null)
  store i32 %58, ptr %13, align 4
  %59 = load ptr, ptr %15, align 8
  call void @deleteGSSOIDSet(ptr noundef %59)
  %60 = load i32, ptr @JGSS_DEBUG, align 4
  %61 = icmp ne i32 %60, 0
  br i1 %61, label %62, label %69

62:                                               ; preds = %50
  %63 = load ptr, ptr @stderr, align 8
  %64 = load ptr, ptr %18, align 8
  %65 = ptrtoint ptr %64 to i64
  %66 = call i32 (ptr, ptr, ...) @fprintf(ptr noundef %63, ptr noundef @.str.22, i32 noundef 649, i64 noundef %65) #5
  %67 = load ptr, ptr @stderr, align 8
  %68 = call i32 @fflush(ptr noundef %67)
  br label %69

69:                                               ; preds = %62, %50
  %70 = load ptr, ptr %7, align 8
  %71 = load ptr, ptr %8, align 8
  %72 = load i32, ptr %13, align 4
  %73 = load i32, ptr %12, align 4
  call void @checkStatus(ptr noundef %70, ptr noundef %71, i32 noundef %72, i32 noundef %73, ptr noundef @.str.20)
  %74 = load ptr, ptr %7, align 8
  %75 = load ptr, ptr %74, align 8
  %76 = getelementptr inbounds %struct.JNINativeInterface_, ptr %75, i32 0, i32 228
  %77 = load ptr, ptr %76, align 8
  %78 = load ptr, ptr %7, align 8
  %79 = call zeroext i8 %77(ptr noundef %78)
  %80 = icmp ne i8 %79, 0
  br i1 %80, label %81, label %82

81:                                               ; preds = %69
  store i64 0, ptr %6, align 8
  br label %85

82:                                               ; preds = %69
  %83 = load ptr, ptr %18, align 8
  %84 = ptrtoint ptr %83 to i64
  store i64 %84, ptr %6, align 8
  br label %85

85:                                               ; preds = %82, %81
  %86 = load i64, ptr %6, align 8
  ret i64 %86
}