; Function Attrs: nounwind uwtable
define i64 @Java_sun_security_jgss_wrapper_GSSLibStub_acquireCred(ptr noundef %0, ptr noundef %1, i64 noundef %2, i32 noundef %3, i32 noundef %4) local_unnamed_addr #0 {
  %6 = alloca i32, align 4
  %7 = alloca ptr, align 8
  store ptr null, ptr %7, align 8
  %8 = load i32, ptr @JGSS_DEBUG, align 4
  %.not = icmp eq i32 %8, 0
  br i1 %.not, label %14, label %9

9:                                                ; preds = %5
  %10 = load ptr, ptr @stderr, align 8
  %11 = tail call i32 (ptr, ptr, ...) @fprintf(ptr noundef %10, ptr noundef nonnull @.str, i32 noundef 632, ptr noundef nonnull @.str.20) #8
  %12 = load ptr, ptr @stderr, align 8
  %13 = tail call i32 @fflush(ptr noundef %12)
  br label %14

14:                                               ; preds = %9, %5
  %15 = load ptr, ptr %0, align 8
  %16 = getelementptr inbounds i8, ptr %15, i64 808
  %17 = load ptr, ptr %16, align 8
  %18 = load ptr, ptr @FID_GSSLibStub_pMech, align 8
  %19 = tail call i64 %17(ptr noundef nonnull %0, ptr noundef %1, ptr noundef %18) #9
  %20 = inttoptr i64 %19 to ptr
  %21 = tail call ptr @newGSSOIDSet(ptr noundef %20) #9
  %22 = inttoptr i64 %2 to ptr
  %23 = load i32, ptr @JGSS_DEBUG, align 4
  %.not18 = icmp eq i32 %23, 0
  br i1 %.not18, label %29, label %24

24:                                               ; preds = %14
  %25 = load ptr, ptr @stderr, align 8
  %26 = tail call i32 (ptr, ptr, ...) @fprintf(ptr noundef %25, ptr noundef nonnull @.str.21, i32 noundef 639, i64 noundef %2, i32 noundef %4) #8
  %27 = load ptr, ptr @stderr, align 8
  %28 = tail call i32 @fflush(ptr noundef %27)
  br label %29

29:                                               ; preds = %24, %14
  %30 = load ptr, ptr @ftab, align 8
  %31 = getelementptr inbounds i8, ptr %30, i64 56
  %32 = load ptr, ptr %31, align 8
  %33 = call i32 %32(ptr noundef nonnull %6, ptr noundef %22, i32 noundef %3, ptr noundef %21, i32 noundef %4, ptr noundef nonnull %7, ptr noundef null, ptr noundef null) #9
  call void @deleteGSSOIDSet(ptr noundef %21) #9
  %34 = load i32, ptr @JGSS_DEBUG, align 4
  %.not19 = icmp eq i32 %34, 0
  br i1 %.not19, label %42, label %35

35:                                               ; preds = %29
  %36 = load ptr, ptr @stderr, align 8
  %37 = load ptr, ptr %7, align 8
  %38 = ptrtoint ptr %37 to i64
  %39 = call i32 (ptr, ptr, ...) @fprintf(ptr noundef %36, ptr noundef nonnull @.str.22, i32 noundef 649, i64 noundef %38) #8
  %40 = load ptr, ptr @stderr, align 8
  %41 = call i32 @fflush(ptr noundef %40)
  br label %42

42:                                               ; preds = %35, %29
  %43 = load i32, ptr %6, align 4
  call void @checkStatus(ptr noundef nonnull %0, ptr noundef %1, i32 noundef %33, i32 noundef %43, ptr noundef nonnull @.str.20) #9
  %44 = load ptr, ptr %0, align 8
  %45 = getelementptr inbounds i8, ptr %44, i64 1824
  %46 = load ptr, ptr %45, align 8
  %47 = call zeroext i8 %46(ptr noundef nonnull %0) #9
  %.not20 = icmp eq i8 %47, 0
  %48 = load ptr, ptr %7, align 8
  %49 = ptrtoint ptr %48 to i64
  %.0 = select i1 %.not20, i64 %49, i64 0
  ret i64 %.0
}